target datalayout = "e-m:e-p270:32:32-p271:32:32-p272:64:64-i64:64-i128:128-f80:128-n8:16:32:64-S128"
target triple = "x86_64-pc-linux-gnu"

%struct.dt_develop_blend_params_t = type { i32, i32, i32, float, float, i32, i32, i32, float, i32, float, float, float, float, i32, [2 x i32], [64 x float], [16 x float], [20 x i8], i32, i32, i32 }

; Function Attrs: nounwind uwtable
define internal void @_blend_init_blendif_boost_parameters(ptr noundef %0, i32 noundef %1) #0 {
  %3 = alloca ptr, align 8
  %4 = alloca i32, align 4
  store ptr %0, ptr %3, align 8, !tbaa !30
  store i32 %1, ptr %4, align 4, !tbaa !11
  %5 = load i32, ptr %4, align 4, !tbaa !11
  %6 = icmp eq i32 %5, 4
  br i1 %6, label %7, label %20

7:                                                ; preds = %2
  %8 = load ptr, ptr %3, align 8, !tbaa !30
  %9 = getelementptr inbounds nuw %struct.dt_develop_blend_params_t, ptr %8, i32 0, i32 17
  %10 = getelementptr inbounds [16 x float], ptr %9, i64 0, i64 8
  store float 0xC01A934F00000000, ptr %10, align 4, !tbaa !34
  %11 = load ptr, ptr %3, align 8, !tbaa !30
  %12 = getelementptr inbounds nuw %struct.dt_develop_blend_params_t, ptr %11, i32 0, i32 17
  %13 = getelementptr inbounds [16 x float], ptr %12, i64 0, i64 9
  store float 0xC01A934F00000000, ptr %13, align 4, !tbaa !34
  %14 = load ptr, ptr %3, align 8, !tbaa !30
  %15 = getelementptr inbounds nuw %struct.dt_develop_blend_params_t, ptr %14, i32 0, i32 17
  %16 = getelementptr inbounds [16 x float], ptr %15, i64 0, i64 12
  store float 0xC01A934F00000000, ptr %16, align 4, !tbaa !34
  %17 = load ptr, ptr %3, align 8, !tbaa !30
  %18 = getelementptr inbounds nuw %struct.dt_develop_blend_params_t, ptr %17, i32 0, i32 17
  %19 = getelementptr inbounds [16 x float], ptr %18, i64 0, i64 13
  store float 0xC01A934F00000000, ptr %19, align 4, !tbaa !34
  br label %20

20:                                               ; preds = %7, %2
  ret void
}

; Function Attrs: nounwind uwtable
define void @dt_develop_blend_init_blendif_parameters(ptr noundef %0, i32 noundef %1) #0 {
  %3 = alloca ptr, align 8
  %4 = alloca i32, align 4
  store ptr %0, ptr %3, align 8, !tbaa !30
  store i32 %1, ptr %4, align 4, !tbaa !11
  %5 = load i32, ptr %4, align 4, !tbaa !11
  %6 = load ptr, ptr %3, align 8, !tbaa !30
  %7 = getelementptr inbounds nuw %struct.dt_develop_blend_params_t, ptr %6, i32 0, i32 1
  store i32 %5, ptr %7, align 4, !tbaa !31
  %8 = load i32, ptr getelementptr inbounds nuw (%struct.dt_develop_blend_params_t, ptr @_default_blendop_params, i32 0, i32 2), align 4, !tbaa !35
  %9 = load ptr, ptr %3, align 8, !tbaa !30
  %10 = getelementptr inbounds nuw %struct.dt_develop_blend_params_t, ptr %9, i32 0, i32 2
  store i32 %8, ptr %10, align 4, !tbaa !35
  %11 = load float, ptr getelementptr inbounds nuw (%struct.dt_develop_blend_params_t, ptr @_default_blendop_params, i32 0, i32 3), align 4, !tbaa !36
  %12 = load ptr, ptr %3, align 8, !tbaa !30
  %13 = getelementptr inbounds nuw %struct.dt_develop_blend_params_t, ptr %12, i32 0, i32 3
  store float %11, ptr %13, align 4, !tbaa !36
  %14 = load i32, ptr getelementptr inbounds nuw (%struct.dt_develop_blend_params_t, ptr @_default_blendop_params, i32 0, i32 7), align 4, !tbaa !37
  %15 = load ptr, ptr %3, align 8, !tbaa !30
  %16 = getelementptr inbounds nuw %struct.dt_develop_blend_params_t, ptr %15, i32 0, i32 7
  store i32 %14, ptr %16, align 4, !tbaa !37
  %17 = load ptr, ptr %3, align 8, !tbaa !30
  %18 = getelementptr inbounds nuw %struct.dt_develop_blend_params_t, ptr %17, i32 0, i32 16
  %19 = getelementptr inbounds [64 x float], ptr %18, i64 0, i64 0
  call void @llvm.memcpy.p0.p0.i64(ptr align 4 %19, ptr align 4 getelementptr inbounds nuw (%struct.dt_develop_blend_params_t, ptr @_default_blendop_params, i32 0, i32 16), i64 256, i1 false)
  %20 = load ptr, ptr %3, align 8, !tbaa !30
  %21 = getelementptr inbounds nuw %struct.dt_develop_blend_params_t, ptr %20, i32 0, i32 17
  %22 = getelementptr inbounds [16 x float], ptr %21, i64 0, i64 0
  call void @llvm.memcpy.p0.p0.i64(ptr align 4 %22, ptr align 4 getelementptr inbounds nuw (%struct.dt_develop_blend_params_t, ptr @_default_blendop_params, i32 0, i32 17), i64 64, i1 false)
  %23 = load ptr, ptr %3, align 8, !tbaa !30
  %24 = load i32, ptr %4, align 4, !tbaa !11
  call void @_blend_init_blendif_boost_parameters(ptr noundef %23, i32 noundef %24)
  ret void
}