; Function Attrs: mustprogress nofree norecurse nosync nounwind willreturn memory(argmem: readwrite) uwtable
define void @dt_develop_blend_init_blendif_parameters(ptr noundef writeonly captures(none) initializes((4, 16), (28, 32), (68, 388)) %0, i32 noundef %1) local_unnamed_addr #3 {
  %3 = getelementptr inbounds nuw i8, ptr %0, i64 4
  store i32 %1, ptr %3, align 4, !tbaa !28
  %4 = getelementptr inbounds nuw i8, ptr %0, i64 8
  store i32 24, ptr %4, align 4, !tbaa !32
  %5 = getelementptr inbounds nuw i8, ptr %0, i64 12
  store float 0.000000e+00, ptr %5, align 4, !tbaa !33
  %6 = getelementptr inbounds nuw i8, ptr %0, i64 28
  store i32 0, ptr %6, align 4, !tbaa !34
  %7 = getelementptr inbounds nuw i8, ptr %0, i64 68
  tail call void @llvm.memcpy.p0.p0.i64(ptr noundef nonnull align 4 dereferenceable(256) %7, ptr noundef nonnull align 4 dereferenceable(256) getelementptr inbounds nuw (i8, ptr @_default_blendop_params, i64 68), i64 256, i1 false)
  %8 = getelementptr inbounds nuw i8, ptr %0, i64 324
  tail call void @llvm.memcpy.p0.p0.i64(ptr noundef nonnull align 4 dereferenceable(64) %8, ptr noundef nonnull align 4 dereferenceable(64) getelementptr inbounds nuw (i8, ptr @_default_blendop_params, i64 324), i64 64, i1 false)
  %9 = icmp eq i32 %1, 4
  br i1 %9, label %10, label %_blend_init_blendif_boost_parameters.exit

10:                                               ; preds = %2
  %11 = getelementptr inbounds nuw i8, ptr %0, i64 356
  store float 0xC01A934F00000000, ptr %11, align 4, !tbaa !31
  %12 = getelementptr inbounds nuw i8, ptr %0, i64 360
  store float 0xC01A934F00000000, ptr %12, align 4, !tbaa !31
  %13 = getelementptr inbounds nuw i8, ptr %0, i64 372
  store float 0xC01A934F00000000, ptr %13, align 4, !tbaa !31
  %14 = getelementptr inbounds nuw i8, ptr %0, i64 376
  store float 0xC01A934F00000000, ptr %14, align 4, !tbaa !31
  br label %_blend_init_blendif_boost_parameters.exit

_blend_init_blendif_boost_parameters.exit:        ; preds = %2, %10
  ret void
}